target datalayout = "e-m:e-p270:32:32-p271:32:32-p272:64:64-i64:64-i128:128-f80:128-n8:16:32:64-S128"
target triple = "x86_64-pc-linux-gnu"

%struct.archive_write = type { %struct.archive, i32, i64, i64, ptr, i64, ptr, ptr, ptr, ptr, ptr, i32, i32, ptr, ptr, ptr, ptr, ptr, ptr, ptr, ptr, ptr, ptr, ptr, ptr, ptr, ptr }
%struct.archive = type { i32, i32, ptr, i32, ptr, i32, i32, ptr, %struct.archive_string, ptr, i32, i32, ptr, ptr, i64, i64, i64, i8, i64 }
%struct.archive_string = type { ptr, i64, i64 }
%struct._7zip = type { i32, i64, ptr, i64, i64, i64, i64, i64, [3 x i64], i64, i64, i64, i32, i32, i32, i32, i32, i32, %struct.la_zstream, %struct.coder, ptr, [61440 x i8], i64, %struct.anon, %struct.anon, %struct.archive_rb_tree }
%struct.la_zstream = type { ptr, i64, i64, ptr, i64, i64, i32, ptr, i32, ptr, ptr, ptr }
%struct.coder = type { i32, i64, ptr }
%struct.anon = type { ptr, ptr }
%struct.archive_rb_tree = type { ptr, ptr }

@.str.3 = private unnamed_addr constant [12 x i8] c"compression\00", align 1
@.str.4 = private unnamed_addr constant [5 x i8] c"copy\00", align 1
@.str.5 = private unnamed_addr constant [5 x i8] c"COPY\00", align 1
@.str.6 = private unnamed_addr constant [6 x i8] c"store\00", align 1
@.str.7 = private unnamed_addr constant [6 x i8] c"STORE\00", align 1
@.str.8 = private unnamed_addr constant [8 x i8] c"deflate\00", align 1
@.str.9 = private unnamed_addr constant [8 x i8] c"DEFLATE\00", align 1
@.str.10 = private unnamed_addr constant [6 x i8] c"bzip2\00", align 1
@.str.11 = private unnamed_addr constant [6 x i8] c"BZIP2\00", align 1
@.str.12 = private unnamed_addr constant [6 x i8] c"lzma1\00", align 1
@.str.13 = private unnamed_addr constant [6 x i8] c"LZMA1\00", align 1
@.str.14 = private unnamed_addr constant [6 x i8] c"lzma2\00", align 1
@.str.15 = private unnamed_addr constant [6 x i8] c"LZMA2\00", align 1
@.str.16 = private unnamed_addr constant [5 x i8] c"ppmd\00", align 1
@.str.17 = private unnamed_addr constant [5 x i8] c"PPMD\00", align 1
@.str.18 = private unnamed_addr constant [5 x i8] c"PPMd\00", align 1
@.str.19 = private unnamed_addr constant [31 x i8] c"Unknown compression name: `%s'\00", align 1
@.str.20 = private unnamed_addr constant [48 x i8] c"`%s' compression not supported on this platform\00", align 1
@.str.21 = private unnamed_addr constant [18 x i8] c"compression-level\00", align 1
@.str.22 = private unnamed_addr constant [19 x i8] c"Illegal value `%s'\00", align 1

; Function Attrs: nounwind uwtable
define internal i32 @_7z_options(ptr noundef %0, ptr noundef %1, ptr noundef %2) #0 {
  %4 = alloca i32, align 4
  %5 = alloca ptr, align 8
  %6 = alloca ptr, align 8
  %7 = alloca ptr, align 8
  %8 = alloca ptr, align 8
  %9 = alloca ptr, align 8
  store ptr %0, ptr %5, align 8
  store ptr %1, ptr %6, align 8
  store ptr %2, ptr %7, align 8
  %10 = load ptr, ptr %5, align 8
  %11 = getelementptr inbounds %struct.archive_write, ptr %10, i32 0, i32 15
  %12 = load ptr, ptr %11, align 8
  store ptr %12, ptr %8, align 8
  %13 = load ptr, ptr %6, align 8
  %14 = call i32 @strcmp(ptr noundef %13, ptr noundef @.str.3) #9
  %15 = icmp eq i32 %14, 0
  br i1 %15, label %16, label %114

16:                                               ; preds = %3
  store ptr null, ptr %9, align 8
  %17 = load ptr, ptr %7, align 8
  %18 = icmp eq ptr %17, null
  br i1 %18, label %35, label %19

19:                                               ; preds = %16
  %20 = load ptr, ptr %7, align 8
  %21 = call i32 @strcmp(ptr noundef %20, ptr noundef @.str.4) #9
  %22 = icmp eq i32 %21, 0
  br i1 %22, label %35, label %23

23:                                               ; preds = %19
  %24 = load ptr, ptr %7, align 8
  %25 = call i32 @strcmp(ptr noundef %24, ptr noundef @.str.5) #9
  %26 = icmp eq i32 %25, 0
  br i1 %26, label %35, label %27

27:                                               ; preds = %23
  %28 = load ptr, ptr %7, align 8
  %29 = call i32 @strcmp(ptr noundef %28, ptr noundef @.str.6) #9
  %30 = icmp eq i32 %29, 0
  br i1 %30, label %35, label %31

31:                                               ; preds = %27
  %32 = load ptr, ptr %7, align 8
  %33 = call i32 @strcmp(ptr noundef %32, ptr noundef @.str.7) #9
  %34 = icmp eq i32 %33, 0
  br i1 %34, label %35, label %38

35:                                               ; preds = %31, %27, %23, %19, %16
  %36 = load ptr, ptr %8, align 8
  %37 = getelementptr inbounds %struct._7zip, ptr %36, i32 0, i32 16
  store i32 0, ptr %37, align 8
  br label %106

38:                                               ; preds = %31
  %39 = load ptr, ptr %7, align 8
  %40 = call i32 @strcmp(ptr noundef %39, ptr noundef @.str.8) #9
  %41 = icmp eq i32 %40, 0
  br i1 %41, label %46, label %42

42:                                               ; preds = %38
  %43 = load ptr, ptr %7, align 8
  %44 = call i32 @strcmp(ptr noundef %43, ptr noundef @.str.9) #9
  %45 = icmp eq i32 %44, 0
  br i1 %45, label %46, label %49

46:                                               ; preds = %42, %38
  %47 = load ptr, ptr %8, align 8
  %48 = getelementptr inbounds %struct._7zip, ptr %47, i32 0, i32 16
  store i32 262408, ptr %48, align 8
  br label %105

49:                                               ; preds = %42
  %50 = load ptr, ptr %7, align 8
  %51 = call i32 @strcmp(ptr noundef %50, ptr noundef @.str.10) #9
  %52 = icmp eq i32 %51, 0
  br i1 %52, label %57, label %53

53:                                               ; preds = %49
  %54 = load ptr, ptr %7, align 8
  %55 = call i32 @strcmp(ptr noundef %54, ptr noundef @.str.11) #9
  %56 = icmp eq i32 %55, 0
  br i1 %56, label %57, label %60

57:                                               ; preds = %53, %49
  %58 = load ptr, ptr %8, align 8
  %59 = getelementptr inbounds %struct._7zip, ptr %58, i32 0, i32 16
  store i32 262658, ptr %59, align 8
  br label %104

60:                                               ; preds = %53
  %61 = load ptr, ptr %7, align 8
  %62 = call i32 @strcmp(ptr noundef %61, ptr noundef @.str.12) #9
  %63 = icmp eq i32 %62, 0
  br i1 %63, label %68, label %64

64:                                               ; preds = %60
  %65 = load ptr, ptr %7, align 8
  %66 = call i32 @strcmp(ptr noundef %65, ptr noundef @.str.13) #9
  %67 = icmp eq i32 %66, 0
  br i1 %67, label %68, label %71

68:                                               ; preds = %64, %60
  %69 = load ptr, ptr %8, align 8
  %70 = getelementptr inbounds %struct._7zip, ptr %69, i32 0, i32 16
  store i32 196865, ptr %70, align 8
  br label %103

71:                                               ; preds = %64
  %72 = load ptr, ptr %7, align 8
  %73 = call i32 @strcmp(ptr noundef %72, ptr noundef @.str.14) #9
  %74 = icmp eq i32 %73, 0
  br i1 %74, label %79, label %75

75:                                               ; preds = %71
  %76 = load ptr, ptr %7, align 8
  %77 = call i32 @strcmp(ptr noundef %76, ptr noundef @.str.15) #9
  %78 = icmp eq i32 %77, 0
  br i1 %78, label %79, label %82

79:                                               ; preds = %75, %71
  %80 = load ptr, ptr %8, align 8
  %81 = getelementptr inbounds %struct._7zip, ptr %80, i32 0, i32 16
  store i32 33, ptr %81, align 8
  br label %102

82:                                               ; preds = %75
  %83 = load ptr, ptr %7, align 8
  %84 = call i32 @strcmp(ptr noundef %83, ptr noundef @.str.16) #9
  %85 = icmp eq i32 %84, 0
  br i1 %85, label %94, label %86

86:                                               ; preds = %82
  %87 = load ptr, ptr %7, align 8
  %88 = call i32 @strcmp(ptr noundef %87, ptr noundef @.str.17) #9
  %89 = icmp eq i32 %88, 0
  br i1 %89, label %94, label %90

90:                                               ; preds = %86
  %91 = load ptr, ptr %7, align 8
  %92 = call i32 @strcmp(ptr noundef %91, ptr noundef @.str.18) #9
  %93 = icmp eq i32 %92, 0
  br i1 %93, label %94, label %97

94:                                               ; preds = %90, %86, %82
  %95 = load ptr, ptr %8, align 8
  %96 = getelementptr inbounds %struct._7zip, ptr %95, i32 0, i32 16
  store i32 197633, ptr %96, align 8
  br label %101

97:                                               ; preds = %90
  %98 = load ptr, ptr %5, align 8
  %99 = getelementptr inbounds %struct.archive_write, ptr %98, i32 0, i32 0
  %100 = load ptr, ptr %7, align 8
  call void (ptr, i32, ptr, ...) @archive_set_error(ptr noundef %99, i32 noundef -1, ptr noundef @.str.19, ptr noundef %100)
  store i32 -25, ptr %4, align 4
  br label %152

101:                                              ; preds = %94
  br label %102

102:                                              ; preds = %101, %79
  br label %103

103:                                              ; preds = %102, %68
  br label %104

104:                                              ; preds = %103, %57
  br label %105

105:                                              ; preds = %104, %46
  br label %106

106:                                              ; preds = %105, %35
  %107 = load ptr, ptr %9, align 8
  %108 = icmp ne ptr %107, null
  br i1 %108, label %109, label %113

109:                                              ; preds = %106
  %110 = load ptr, ptr %5, align 8
  %111 = getelementptr inbounds %struct.archive_write, ptr %110, i32 0, i32 0
  %112 = load ptr, ptr %9, align 8
  call void (ptr, i32, ptr, ...) @archive_set_error(ptr noundef %111, i32 noundef -1, ptr noundef @.str.20, ptr noundef %112)
  store i32 -25, ptr %4, align 4
  br label %152

113:                                              ; preds = %106
  store i32 0, ptr %4, align 4
  br label %152

114:                                              ; preds = %3
  %115 = load ptr, ptr %6, align 8
  %116 = call i32 @strcmp(ptr noundef %115, ptr noundef @.str.21) #9
  %117 = icmp eq i32 %116, 0
  br i1 %117, label %118, label %151

118:                                              ; preds = %114
  %119 = load ptr, ptr %7, align 8
  %120 = icmp eq ptr %119, null
  br i1 %120, label %139, label %121

121:                                              ; preds = %118
  %122 = load ptr, ptr %7, align 8
  %123 = getelementptr inbounds i8, ptr %122, i64 0
  %124 = load i8, ptr %123, align 1
  %125 = sext i8 %124 to i32
  %126 = icmp sge i32 %125, 48
  br i1 %126, label %127, label %139

127:                                              ; preds = %121
  %128 = load ptr, ptr %7, align 8
  %129 = getelementptr inbounds i8, ptr %128, i64 0
  %130 = load i8, ptr %129, align 1
  %131 = sext i8 %130 to i32
  %132 = icmp sle i32 %131, 57
  br i1 %132, label %133, label %139

133:                                              ; preds = %127
  %134 = load ptr, ptr %7, align 8
  %135 = getelementptr inbounds i8, ptr %134, i64 1
  %136 = load i8, ptr %135, align 1
  %137 = sext i8 %136 to i32
  %138 = icmp ne i32 %137, 0
  br i1 %138, label %139, label %143

139:                                              ; preds = %133, %127, %121, %118
  %140 = load ptr, ptr %5, align 8
  %141 = getelementptr inbounds %struct.archive_write, ptr %140, i32 0, i32 0
  %142 = load ptr, ptr %7, align 8
  call void (ptr, i32, ptr, ...) @archive_set_error(ptr noundef %141, i32 noundef -1, ptr noundef @.str.22, ptr noundef %142)
  store i32 -25, ptr %4, align 4
  br label %152

143:                                              ; preds = %133
  %144 = load ptr, ptr %7, align 8
  %145 = getelementptr inbounds i8, ptr %144, i64 0
  %146 = load i8, ptr %145, align 1
  %147 = sext i8 %146 to i32
  %148 = sub nsw i32 %147, 48
  %149 = load ptr, ptr %8, align 8
  %150 = getelementptr inbounds %struct._7zip, ptr %149, i32 0, i32 17
  store i32 %148, ptr %150, align 4
  store i32 0, ptr %4, align 4
  br label %152

151:                                              ; preds = %114
  store i32 -20, ptr %4, align 4
  br label %152

152:                                              ; preds = %151, %143, %139, %113, %109, %97
  %153 = load i32, ptr %4, align 4
  ret i32 %153
}