; Function Attrs: nounwind uwtable
define internal range(i32 -25, 1) i32 @_7z_options(ptr noundef %0, ptr noundef readonly captures(none) %1, ptr noundef %2) #0 {
  %4 = getelementptr inbounds nuw i8, ptr %0, i64 248
  %5 = load ptr, ptr %4, align 8
  %6 = tail call i32 @strcmp(ptr noundef nonnull dereferenceable(1) %1, ptr noundef nonnull dereferenceable(12) @.str.3) #20
  %7 = icmp eq i32 %6, 0
  br i1 %7, label %8, label %68

8:                                                ; preds = %3
  %9 = icmp eq ptr %2, null
  br i1 %9, label %22, label %10

10:                                               ; preds = %8
  %11 = tail call i32 @strcmp(ptr noundef nonnull dereferenceable(1) %2, ptr noundef nonnull dereferenceable(5) @.str.4) #20
  %12 = icmp eq i32 %11, 0
  br i1 %12, label %22, label %13

13:                                               ; preds = %10
  %14 = tail call i32 @strcmp(ptr noundef nonnull dereferenceable(1) %2, ptr noundef nonnull dereferenceable(5) @.str.5) #20
  %15 = icmp eq i32 %14, 0
  br i1 %15, label %22, label %16

16:                                               ; preds = %13
  %17 = tail call i32 @strcmp(ptr noundef nonnull dereferenceable(1) %2, ptr noundef nonnull dereferenceable(6) @.str.6) #20
  %18 = icmp eq i32 %17, 0
  br i1 %18, label %22, label %19

19:                                               ; preds = %16
  %20 = tail call i32 @strcmp(ptr noundef nonnull dereferenceable(1) %2, ptr noundef nonnull dereferenceable(6) @.str.7) #20
  %21 = icmp eq i32 %20, 0
  br i1 %21, label %22, label %24

22:                                               ; preds = %19, %16, %13, %10, %8
  %23 = getelementptr inbounds nuw i8, ptr %5, i64 128
  store i32 0, ptr %23, align 8
  br label %83

24:                                               ; preds = %19
  %25 = tail call i32 @strcmp(ptr noundef nonnull dereferenceable(1) %2, ptr noundef nonnull dereferenceable(8) @.str.8) #20
  %26 = icmp eq i32 %25, 0
  br i1 %26, label %30, label %27

27:                                               ; preds = %24
  %28 = tail call i32 @strcmp(ptr noundef nonnull dereferenceable(1) %2, ptr noundef nonnull dereferenceable(8) @.str.9) #20
  %29 = icmp eq i32 %28, 0
  br i1 %29, label %30, label %32

30:                                               ; preds = %27, %24
  %31 = getelementptr inbounds nuw i8, ptr %5, i64 128
  store i32 262408, ptr %31, align 8
  br label %83

32:                                               ; preds = %27
  %33 = tail call i32 @strcmp(ptr noundef nonnull dereferenceable(1) %2, ptr noundef nonnull dereferenceable(6) @.str.10) #20
  %34 = icmp eq i32 %33, 0
  br i1 %34, label %38, label %35

35:                                               ; preds = %32
  %36 = tail call i32 @strcmp(ptr noundef nonnull dereferenceable(1) %2, ptr noundef nonnull dereferenceable(6) @.str.11) #20
  %37 = icmp eq i32 %36, 0
  br i1 %37, label %38, label %40

38:                                               ; preds = %35, %32
  %39 = getelementptr inbounds nuw i8, ptr %5, i64 128
  store i32 262658, ptr %39, align 8
  br label %83

40:                                               ; preds = %35
  %41 = tail call i32 @strcmp(ptr noundef nonnull dereferenceable(1) %2, ptr noundef nonnull dereferenceable(6) @.str.12) #20
  %42 = icmp eq i32 %41, 0
  br i1 %42, label %46, label %43

43:                                               ; preds = %40
  %44 = tail call i32 @strcmp(ptr noundef nonnull dereferenceable(1) %2, ptr noundef nonnull dereferenceable(6) @.str.13) #20
  %45 = icmp eq i32 %44, 0
  br i1 %45, label %46, label %48

46:                                               ; preds = %43, %40
  %47 = getelementptr inbounds nuw i8, ptr %5, i64 128
  store i32 196865, ptr %47, align 8
  br label %83

48:                                               ; preds = %43
  %49 = tail call i32 @strcmp(ptr noundef nonnull dereferenceable(1) %2, ptr noundef nonnull dereferenceable(6) @.str.14) #20
  %50 = icmp eq i32 %49, 0
  br i1 %50, label %54, label %51

51:                                               ; preds = %48
  %52 = tail call i32 @strcmp(ptr noundef nonnull dereferenceable(1) %2, ptr noundef nonnull dereferenceable(6) @.str.15) #20
  %53 = icmp eq i32 %52, 0
  br i1 %53, label %54, label %56

54:                                               ; preds = %51, %48
  %55 = getelementptr inbounds nuw i8, ptr %5, i64 128
  store i32 33, ptr %55, align 8
  br label %83

56:                                               ; preds = %51
  %57 = tail call i32 @strcmp(ptr noundef nonnull dereferenceable(1) %2, ptr noundef nonnull dereferenceable(5) @.str.16) #20
  %58 = icmp eq i32 %57, 0
  br i1 %58, label %65, label %59

59:                                               ; preds = %56
  %60 = tail call i32 @strcmp(ptr noundef nonnull dereferenceable(1) %2, ptr noundef nonnull dereferenceable(5) @.str.17) #20
  %61 = icmp eq i32 %60, 0
  br i1 %61, label %65, label %62

62:                                               ; preds = %59
  %63 = tail call i32 @strcmp(ptr noundef nonnull dereferenceable(1) %2, ptr noundef nonnull dereferenceable(5) @.str.18) #20
  %64 = icmp eq i32 %63, 0
  br i1 %64, label %65, label %67

65:                                               ; preds = %62, %59, %56
  %66 = getelementptr inbounds nuw i8, ptr %5, i64 128
  store i32 197633, ptr %66, align 8
  br label %83

67:                                               ; preds = %62
  tail call void (ptr, i32, ptr, ...) @archive_set_error(ptr noundef nonnull %0, i32 noundef -1, ptr noundef nonnull @.str.19, ptr noundef nonnull %2) #18
  br label %83

68:                                               ; preds = %3
  %69 = tail call i32 @strcmp(ptr noundef nonnull dereferenceable(1) %1, ptr noundef nonnull dereferenceable(18) @.str.21) #20
  %70 = icmp eq i32 %69, 0
  br i1 %70, label %71, label %83

71:                                               ; preds = %68
  %72 = icmp eq ptr %2, null
  br i1 %72, label %79, label %73

73:                                               ; preds = %71
  %74 = load i8, ptr %2, align 1
  %75 = add i8 %74, -48
  %or.cond = icmp ult i8 %75, 10
  br i1 %or.cond, label %76, label %79

76:                                               ; preds = %73
  %77 = getelementptr inbounds nuw i8, ptr %2, i64 1
  %78 = load i8, ptr %77, align 1
  %.not = icmp eq i8 %78, 0
  br i1 %.not, label %80, label %79

79:                                               ; preds = %76, %73, %71
  tail call void (ptr, i32, ptr, ...) @archive_set_error(ptr noundef nonnull %0, i32 noundef -1, ptr noundef nonnull @.str.22, ptr noundef %2) #18
  br label %83

80:                                               ; preds = %76
  %81 = zext nneg i8 %75 to i32
  %82 = getelementptr inbounds nuw i8, ptr %5, i64 132
  store i32 %81, ptr %82, align 4
  br label %83

83:                                               ; preds = %68, %30, %46, %65, %54, %38, %22, %80, %79, %67
  %.0 = phi i32 [ -25, %67 ], [ -25, %79 ], [ 0, %80 ], [ 0, %22 ], [ 0, %38 ], [ 0, %54 ], [ 0, %65 ], [ 0, %46 ], [ 0, %30 ], [ -20, %68 ]
  ret i32 %.0
}